target datalayout = "e-m:e-p270:32:32-p271:32:32-p272:64:64-i64:64-i128:128-f80:128-n8:16:32:64-S128"
target triple = "x86_64-pc-linux-gnu"

%"struct.pxrInternal_v0_24__pxrReserved__::pxr_double_conversion::PowersOfTenCache::CachedPower" = type { i64, i16, i16 }
%"class.pxrInternal_v0_24__pxrReserved__::pxr_double_conversion::DiyFp" = type <{ i64, i32, [4 x i8] }>

; Function Attrs: mustprogress nounwind uwtable
define linkonce_odr void @_ZN32pxrInternal_v0_24__pxrReserved__21pxr_double_conversion5DiyFpC2Emi(ptr noundef nonnull align 8 dereferenceable(12) %0, i64 noundef %1, i32 noundef %2) unnamed_addr #3 comdat align 2 {
  %4 = alloca ptr, align 8
  %5 = alloca i64, align 8
  %6 = alloca i32, align 4
  store ptr %0, ptr %4, align 8
  store i64 %1, ptr %5, align 8
  store i32 %2, ptr %6, align 4
  %7 = load ptr, ptr %4, align 8
  %8 = getelementptr inbounds nuw %"class.pxrInternal_v0_24__pxrReserved__::pxr_double_conversion::DiyFp", ptr %7, i32 0, i32 0
  %9 = load i64, ptr %5, align 8
  store i64 %9, ptr %8, align 8
  %10 = getelementptr inbounds nuw %"class.pxrInternal_v0_24__pxrReserved__::pxr_double_conversion::DiyFp", ptr %7, i32 0, i32 1
  %11 = load i32, ptr %6, align 4
  store i32 %11, ptr %10, align 8
  ret void
}

; Function Attrs: mustprogress uwtable
define void @_ZN32pxrInternal_v0_24__pxrReserved__21pxr_double_conversion16PowersOfTenCache32GetCachedPowerForDecimalExponentEiPNS0_5DiyFpEPi(i32 noundef %0, ptr noundef %1, ptr noundef %2) #0 {
  %4 = alloca i32, align 4
  %5 = alloca ptr, align 8
  %6 = alloca ptr, align 8
  %7 = alloca i32, align 4
  %8 = alloca %"struct.pxrInternal_v0_24__pxrReserved__::pxr_double_conversion::PowersOfTenCache::CachedPower", align 8
  %9 = alloca %"class.pxrInternal_v0_24__pxrReserved__::pxr_double_conversion::DiyFp", align 8
  store i32 %0, ptr %4, align 4
  store ptr %1, ptr %5, align 8
  store ptr %2, ptr %6, align 8
  %10 = load i32, ptr %4, align 4
  %11 = add nsw i32 %10, 348
  %12 = sdiv i32 %11, 8
  store i32 %12, ptr %7, align 4
  %13 = load i32, ptr %7, align 4
  %14 = sext i32 %13 to i64
  %15 = getelementptr inbounds [87 x %"struct.pxrInternal_v0_24__pxrReserved__::pxr_double_conversion::PowersOfTenCache::CachedPower"], ptr @_ZN32pxrInternal_v0_24__pxrReserved__21pxr_double_conversion16PowersOfTenCacheL13kCachedPowersE, i64 0, i64 %14
  call void @llvm.memcpy.p0.p0.i64(ptr align 8 %8, ptr align 16 %15, i64 16, i1 false)
  %16 = getelementptr inbounds nuw %"struct.pxrInternal_v0_24__pxrReserved__::pxr_double_conversion::PowersOfTenCache::CachedPower", ptr %8, i32 0, i32 0
  %17 = load i64, ptr %16, align 8
  %18 = getelementptr inbounds nuw %"struct.pxrInternal_v0_24__pxrReserved__::pxr_double_conversion::PowersOfTenCache::CachedPower", ptr %8, i32 0, i32 1
  %19 = load i16, ptr %18, align 8
  %20 = sext i16 %19 to i32
  call void @_ZN32pxrInternal_v0_24__pxrReserved__21pxr_double_conversion5DiyFpC2Emi(ptr noundef nonnull align 8 dereferenceable(12) %9, i64 noundef %17, i32 noundef %20)
  %21 = load ptr, ptr %5, align 8
  call void @llvm.memcpy.p0.p0.i64(ptr align 8 %21, ptr align 8 %9, i64 12, i1 false)
  %22 = getelementptr inbounds nuw %"struct.pxrInternal_v0_24__pxrReserved__::pxr_double_conversion::PowersOfTenCache::CachedPower", ptr %8, i32 0, i32 2
  %23 = load i16, ptr %22, align 2
  %24 = sext i16 %23 to i32
  %25 = load ptr, ptr %6, align 8
  store i32 %24, ptr %25, align 4
  ret void
}